target datalayout = "e-m:e-p270:32:32-p271:32:32-p272:64:64-i64:64-i128:128-f80:128-n8:16:32:64-S128"
target triple = "x86_64-pc-linux-gnu"

%struct.UConverterToUnicodeArgs = type { i16, i8, ptr, ptr, ptr, ptr, ptr, ptr }
%struct.UConverterFromUnicodeArgs = type { i16, i8, ptr, ptr, ptr, ptr, ptr, ptr }
%struct.UConverter = type { ptr, ptr, ptr, ptr, ptr, ptr, ptr, i32, i8, i8, i8, i8, i8, [7 x i8], i32, i32, i32, i32, i8, i8, i8, i8, i8, i8, i8, i8, [8 x i8], [32 x i8], [2 x i16], [2 x i16], [32 x i16], i32, [19 x i16], [31 x i8], i8, i8, i8, i32 }
%struct.UConverterSharedData = type { i32, i32, ptr, ptr, i8, i8, ptr, i32, %struct.UConverterMBCSTable }
%struct.UConverterMBCSTable = type { i8, i8, i8, i32, ptr, ptr, ptr, ptr, ptr, ptr, [64 x i16], ptr, ptr, i32, i8, i8, i8, i16, i32, ptr, ptr, ptr, ptr }
%struct.UConverterImpl = type { i32, ptr, ptr, ptr, ptr, ptr, ptr, ptr, ptr, ptr, ptr, ptr, ptr, ptr, ptr, ptr, ptr, ptr }

; Function Attrs: mustprogress uwtable
define void @ucnv_close_77(ptr noundef %0) #0 {
  %2 = alloca ptr, align 8
  %3 = alloca i32, align 4
  %4 = alloca i32, align 4
  %5 = alloca %struct.UConverterToUnicodeArgs, align 8
  %6 = alloca %struct.UConverterFromUnicodeArgs, align 8
  store ptr %0, ptr %2, align 8, !tbaa !11
  call void @llvm.lifetime.start.p0(i64 4, ptr %3) #11
  store i32 0, ptr %3, align 4, !tbaa !9
  %7 = load ptr, ptr %2, align 8, !tbaa !11
  %8 = icmp eq ptr %7, null
  br i1 %8, label %9, label %10

9:                                                ; preds = %1
  store i32 1, ptr %4, align 4
  br label %91

10:                                               ; preds = %1
  %11 = load ptr, ptr %2, align 8, !tbaa !11
  %12 = getelementptr inbounds nuw %struct.UConverter, ptr %11, i32 0, i32 1
  %13 = load ptr, ptr %12, align 8, !tbaa !47
  %14 = icmp ne ptr %13, @UCNV_TO_U_CALLBACK_SUBSTITUTE_77
  br i1 %14, label %15, label %26

15:                                               ; preds = %10
  call void @llvm.lifetime.start.p0(i64 56, ptr %5) #11
  call void @llvm.memset.p0.i64(ptr align 8 %5, i8 0, i64 56, i1 false)
  %16 = getelementptr inbounds %struct.UConverterToUnicodeArgs, ptr %5, i32 0, i32 0
  store i16 56, ptr %16, align 8
  %17 = getelementptr inbounds %struct.UConverterToUnicodeArgs, ptr %5, i32 0, i32 1
  store i8 1, ptr %17, align 2
  %18 = load ptr, ptr %2, align 8, !tbaa !11
  %19 = getelementptr inbounds nuw %struct.UConverterToUnicodeArgs, ptr %5, i32 0, i32 2
  store ptr %18, ptr %19, align 8, !tbaa !45
  store i32 0, ptr %3, align 4, !tbaa !9
  %20 = load ptr, ptr %2, align 8, !tbaa !11
  %21 = getelementptr inbounds nuw %struct.UConverter, ptr %20, i32 0, i32 1
  %22 = load ptr, ptr %21, align 8, !tbaa !47
  %23 = load ptr, ptr %2, align 8, !tbaa !11
  %24 = getelementptr inbounds nuw %struct.UConverter, ptr %23, i32 0, i32 4
  %25 = load ptr, ptr %24, align 8, !tbaa !48
  call void %22(ptr noundef %25, ptr noundef %5, ptr noundef null, i32 noundef 0, i32 noundef 4, ptr noundef %3)
  call void @llvm.lifetime.end.p0(i64 56, ptr %5) #11
  br label %26

26:                                               ; preds = %15, %10
  %27 = load ptr, ptr %2, align 8, !tbaa !11
  %28 = getelementptr inbounds nuw %struct.UConverter, ptr %27, i32 0, i32 0
  %29 = load ptr, ptr %28, align 8, !tbaa !49
  %30 = icmp ne ptr %29, @UCNV_FROM_U_CALLBACK_SUBSTITUTE_77
  br i1 %30, label %31, label %42

31:                                               ; preds = %26
  call void @llvm.lifetime.start.p0(i64 56, ptr %6) #11
  call void @llvm.memset.p0.i64(ptr align 8 %6, i8 0, i64 56, i1 false)
  %32 = getelementptr inbounds %struct.UConverterFromUnicodeArgs, ptr %6, i32 0, i32 0
  store i16 56, ptr %32, align 8
  %33 = getelementptr inbounds %struct.UConverterFromUnicodeArgs, ptr %6, i32 0, i32 1
  store i8 1, ptr %33, align 2
  %34 = load ptr, ptr %2, align 8, !tbaa !11
  %35 = getelementptr inbounds nuw %struct.UConverterFromUnicodeArgs, ptr %6, i32 0, i32 2
  store ptr %34, ptr %35, align 8, !tbaa !42
  store i32 0, ptr %3, align 4, !tbaa !9
  %36 = load ptr, ptr %2, align 8, !tbaa !11
  %37 = getelementptr inbounds nuw %struct.UConverter, ptr %36, i32 0, i32 0
  %38 = load ptr, ptr %37, align 8, !tbaa !49
  %39 = load ptr, ptr %2, align 8, !tbaa !11
  %40 = getelementptr inbounds nuw %struct.UConverter, ptr %39, i32 0, i32 3
  %41 = load ptr, ptr %40, align 8, !tbaa !50
  call void %38(ptr noundef %41, ptr noundef %6, ptr noundef null, i32 noundef 0, i32 noundef 0, i32 noundef 4, ptr noundef %3)
  call void @llvm.lifetime.end.p0(i64 56, ptr %6) #11
  br label %42

42:                                               ; preds = %31, %26
  %43 = load ptr, ptr %2, align 8, !tbaa !11
  %44 = getelementptr inbounds nuw %struct.UConverter, ptr %43, i32 0, i32 6
  %45 = load ptr, ptr %44, align 8, !tbaa !22
  %46 = getelementptr inbounds nuw %struct.UConverterSharedData, ptr %45, i32 0, i32 6
  %47 = load ptr, ptr %46, align 8, !tbaa !26
  %48 = getelementptr inbounds nuw %struct.UConverterImpl, ptr %47, i32 0, i32 4
  %49 = load ptr, ptr %48, align 8, !tbaa !51
  %50 = icmp ne ptr %49, null
  br i1 %50, label %51, label %60

51:                                               ; preds = %42
  %52 = load ptr, ptr %2, align 8, !tbaa !11
  %53 = getelementptr inbounds nuw %struct.UConverter, ptr %52, i32 0, i32 6
  %54 = load ptr, ptr %53, align 8, !tbaa !22
  %55 = getelementptr inbounds nuw %struct.UConverterSharedData, ptr %54, i32 0, i32 6
  %56 = load ptr, ptr %55, align 8, !tbaa !26
  %57 = getelementptr inbounds nuw %struct.UConverterImpl, ptr %56, i32 0, i32 4
  %58 = load ptr, ptr %57, align 8, !tbaa !51
  %59 = load ptr, ptr %2, align 8, !tbaa !11
  call void %58(ptr noundef %59)
  br label %60

60:                                               ; preds = %51, %42
  %61 = load ptr, ptr %2, align 8, !tbaa !11
  %62 = getelementptr inbounds nuw %struct.UConverter, ptr %61, i32 0, i32 5
  %63 = load ptr, ptr %62, align 8, !tbaa !40
  %64 = load ptr, ptr %2, align 8, !tbaa !11
  %65 = getelementptr inbounds nuw %struct.UConverter, ptr %64, i32 0, i32 28
  %66 = getelementptr inbounds [2 x i16], ptr %65, i64 0, i64 0
  %67 = icmp ne ptr %63, %66
  br i1 %67, label %68, label %72

68:                                               ; preds = %60
  %69 = load ptr, ptr %2, align 8, !tbaa !11
  %70 = getelementptr inbounds nuw %struct.UConverter, ptr %69, i32 0, i32 5
  %71 = load ptr, ptr %70, align 8, !tbaa !40
  call void @uprv_free_77(ptr noundef %71)
  br label %72

72:                                               ; preds = %68, %60
  %73 = load ptr, ptr %2, align 8, !tbaa !11
  %74 = getelementptr inbounds nuw %struct.UConverter, ptr %73, i32 0, i32 6
  %75 = load ptr, ptr %74, align 8, !tbaa !22
  %76 = getelementptr inbounds nuw %struct.UConverterSharedData, ptr %75, i32 0, i32 5
  %77 = load i8, ptr %76, align 1, !tbaa !41
  %78 = icmp ne i8 %77, 0
  br i1 %78, label %79, label %83

79:                                               ; preds = %72
  %80 = load ptr, ptr %2, align 8, !tbaa !11
  %81 = getelementptr inbounds nuw %struct.UConverter, ptr %80, i32 0, i32 6
  %82 = load ptr, ptr %81, align 8, !tbaa !22
  call void @ucnv_unloadSharedDataIfReady_77(ptr noundef %82)
  br label %83

83:                                               ; preds = %79, %72
  %84 = load ptr, ptr %2, align 8, !tbaa !11
  %85 = getelementptr inbounds nuw %struct.UConverter, ptr %84, i32 0, i32 9
  %86 = load i8, ptr %85, align 1, !tbaa !39
  %87 = icmp ne i8 %86, 0
  br i1 %87, label %90, label %88

88:                                               ; preds = %83
  %89 = load ptr, ptr %2, align 8, !tbaa !11
  call void @uprv_free_77(ptr noundef %89)
  br label %90

90:                                               ; preds = %88, %83
  store i32 0, ptr %4, align 4
  br label %91

91:                                               ; preds = %90, %9
  call void @llvm.lifetime.end.p0(i64 4, ptr %3) #11
  %92 = load i32, ptr %4, align 4
  switch i32 %92, label %94 [
    i32 0, label %93
    i32 1, label %93
  ]

93:                                               ; preds = %91, %91
  ret void

94:                                               ; preds = %91
  unreachable
}