; Function Attrs: mustprogress uwtable
define void @ucnv_close_77(ptr noundef %0) local_unnamed_addr #0 {
  %2 = alloca i32, align 4
  %3 = alloca %struct.UConverterToUnicodeArgs, align 8
  %4 = alloca %struct.UConverterFromUnicodeArgs, align 8
  call void @llvm.lifetime.start.p0(i64 4, ptr nonnull %2) #16
  store i32 0, ptr %2, align 4, !tbaa !3
  %5 = icmp eq ptr %0, null
  br i1 %5, label %43, label %6

6:                                                ; preds = %1
  %7 = getelementptr inbounds nuw i8, ptr %0, i64 8
  %8 = load ptr, ptr %7, align 8, !tbaa !38
  %.not = icmp eq ptr %8, @UCNV_TO_U_CALLBACK_SUBSTITUTE_77
  br i1 %.not, label %14, label %9

9:                                                ; preds = %6
  call void @llvm.lifetime.start.p0(i64 56, ptr nonnull %3) #16
  call void @llvm.memset.p0.i64(ptr noundef nonnull align 8 dereferenceable(56) %3, i8 0, i64 56, i1 false)
  store i16 56, ptr %3, align 8
  %10 = getelementptr inbounds nuw i8, ptr %3, i64 2
  store i8 1, ptr %10, align 2
  %11 = getelementptr inbounds nuw i8, ptr %3, i64 8
  store ptr %0, ptr %11, align 8, !tbaa !36
  store i32 0, ptr %2, align 4, !tbaa !3
  %12 = getelementptr inbounds nuw i8, ptr %0, i64 32
  %13 = load ptr, ptr %12, align 8, !tbaa !39
  call void %8(ptr noundef %13, ptr noundef nonnull %3, ptr noundef null, i32 noundef 0, i32 noundef 4, ptr noundef nonnull %2)
  call void @llvm.lifetime.end.p0(i64 56, ptr nonnull %3) #16
  br label %14

14:                                               ; preds = %9, %6
  %15 = load ptr, ptr %0, align 8, !tbaa !40
  %.not21 = icmp eq ptr %15, @UCNV_FROM_U_CALLBACK_SUBSTITUTE_77
  br i1 %.not21, label %21, label %16

16:                                               ; preds = %14
  call void @llvm.lifetime.start.p0(i64 56, ptr nonnull %4) #16
  call void @llvm.memset.p0.i64(ptr noundef nonnull align 8 dereferenceable(56) %4, i8 0, i64 56, i1 false)
  store i16 56, ptr %4, align 8
  %17 = getelementptr inbounds nuw i8, ptr %4, i64 2
  store i8 1, ptr %17, align 2
  %18 = getelementptr inbounds nuw i8, ptr %4, i64 8
  store ptr %0, ptr %18, align 8, !tbaa !31
  store i32 0, ptr %2, align 4, !tbaa !3
  %19 = getelementptr inbounds nuw i8, ptr %0, i64 24
  %20 = load ptr, ptr %19, align 8, !tbaa !41
  call void %15(ptr noundef %20, ptr noundef nonnull %4, ptr noundef null, i32 noundef 0, i32 noundef 0, i32 noundef 4, ptr noundef nonnull %2)
  call void @llvm.lifetime.end.p0(i64 56, ptr nonnull %4) #16
  br label %21

21:                                               ; preds = %16, %14
  %22 = getelementptr inbounds nuw i8, ptr %0, i64 48
  %23 = load ptr, ptr %22, align 8, !tbaa !8
  %24 = getelementptr inbounds nuw i8, ptr %23, i64 32
  %25 = load ptr, ptr %24, align 8, !tbaa !15
  %26 = getelementptr inbounds nuw i8, ptr %25, i64 32
  %27 = load ptr, ptr %26, align 8, !tbaa !42
  %.not22 = icmp eq ptr %27, null
  br i1 %.not22, label %29, label %28

28:                                               ; preds = %21
  call void %27(ptr noundef nonnull %0)
  br label %29

29:                                               ; preds = %28, %21
  %30 = getelementptr inbounds nuw i8, ptr %0, i64 40
  %31 = load ptr, ptr %30, align 8, !tbaa !29
  %32 = getelementptr inbounds nuw i8, ptr %0, i64 136
  %.not23 = icmp eq ptr %31, %32
  br i1 %.not23, label %34, label %33

33:                                               ; preds = %29
  call void @uprv_free_77(ptr noundef %31)
  br label %34

34:                                               ; preds = %33, %29
  %35 = load ptr, ptr %22, align 8, !tbaa !8
  %36 = getelementptr inbounds nuw i8, ptr %35, i64 25
  %37 = load i8, ptr %36, align 1, !tbaa !30
  %.not24 = icmp eq i8 %37, 0
  br i1 %.not24, label %39, label %38

38:                                               ; preds = %34
  call void @ucnv_unloadSharedDataIfReady_77(ptr noundef nonnull %35)
  br label %39

39:                                               ; preds = %38, %34
  %40 = getelementptr inbounds nuw i8, ptr %0, i64 61
  %41 = load i8, ptr %40, align 1, !tbaa !28
  %.not25 = icmp eq i8 %41, 0
  br i1 %.not25, label %42, label %43

42:                                               ; preds = %39
  call void @uprv_free_77(ptr noundef nonnull %0)
  br label %43

43:                                               ; preds = %39, %42, %1
  call void @llvm.lifetime.end.p0(i64 4, ptr nonnull %2) #16
  ret void
}